target datalayout = "e-m:e-p270:32:32-p271:32:32-p272:64:64-i64:64-i128:128-f80:128-n8:16:32:64-S128"
target triple = "x86_64-pc-linux-gnu"

%struct.dt_interpolation = type { i32, ptr, i64, ptr }

@.str = private unnamed_addr constant [45 x i8] c"plugins/lighttable/export/pixel_interpolator\00", align 1
@.str.1 = private unnamed_addr constant [50 x i8] c"plugins/lighttable/export/pixel_interpolator_warp\00", align 1

; Function Attrs: nounwind uwtable
define ptr @dt_interpolation_new(i32 noundef %0) #0 {
  %2 = alloca i32, align 4
  %3 = alloca ptr, align 8
  %4 = alloca ptr, align 8
  %5 = alloca i32, align 4
  %6 = alloca i32, align 4
  %7 = alloca ptr, align 8
  %8 = alloca i32, align 4
  %9 = alloca i32, align 4
  store i32 %0, ptr %2, align 4, !tbaa !15
  call void @llvm.lifetime.start.p0(i64 8, ptr %3) #11
  store ptr null, ptr %3, align 8, !tbaa !6
  %10 = load i32, ptr %2, align 4, !tbaa !15
  %11 = icmp eq i32 %10, 2
  br i1 %11, label %12, label %42

12:                                               ; preds = %1
  call void @llvm.lifetime.start.p0(i64 8, ptr %4) #11
  %13 = call ptr @dt_conf_get_string_const(ptr noundef @.str)
  store ptr %13, ptr %4, align 8, !tbaa !25
  call void @llvm.lifetime.start.p0(i64 4, ptr %5) #11
  store i32 0, ptr %5, align 4, !tbaa !15
  br label %14

14:                                               ; preds = %37, %12
  %15 = load ptr, ptr %4, align 8, !tbaa !25
  %16 = icmp ne ptr %15, null
  br i1 %16, label %17, label %20

17:                                               ; preds = %14
  %18 = load i32, ptr %5, align 4, !tbaa !15
  %19 = icmp slt i32 %18, 4
  br label %20

20:                                               ; preds = %17, %14
  %21 = phi i1 [ false, %14 ], [ %19, %17 ]
  br i1 %21, label %23, label %22

22:                                               ; preds = %20
  store i32 2, ptr %6, align 4
  br label %40

23:                                               ; preds = %20
  %24 = load ptr, ptr %4, align 8, !tbaa !25
  %25 = load i32, ptr %5, align 4, !tbaa !15
  %26 = sext i32 %25 to i64
  %27 = getelementptr inbounds [4 x %struct.dt_interpolation], ptr @dt_interpolator, i64 0, i64 %26
  %28 = getelementptr inbounds nuw %struct.dt_interpolation, ptr %27, i32 0, i32 1
  %29 = load ptr, ptr %28, align 8, !tbaa !26
  %30 = call i32 @strcmp(ptr noundef %24, ptr noundef %29) #12
  %31 = icmp ne i32 %30, 0
  br i1 %31, label %36, label %32

32:                                               ; preds = %23
  %33 = load i32, ptr %5, align 4, !tbaa !15
  %34 = sext i32 %33 to i64
  %35 = getelementptr inbounds [4 x %struct.dt_interpolation], ptr @dt_interpolator, i64 0, i64 %34
  store ptr %35, ptr %3, align 8, !tbaa !6
  store i32 2, ptr %6, align 4
  br label %40

36:                                               ; preds = %23
  br label %37

37:                                               ; preds = %36
  %38 = load i32, ptr %5, align 4, !tbaa !15
  %39 = add nsw i32 %38, 1
  store i32 %39, ptr %5, align 4, !tbaa !15
  br label %14

40:                                               ; preds = %32, %22
  call void @llvm.lifetime.end.p0(i64 4, ptr %5) #11
  br label %41

41:                                               ; preds = %40
  store i32 0, ptr %2, align 4, !tbaa !15
  call void @llvm.lifetime.end.p0(i64 8, ptr %4) #11
  br label %76

42:                                               ; preds = %1
  %43 = load i32, ptr %2, align 4, !tbaa !15
  %44 = icmp eq i32 %43, 3
  br i1 %44, label %45, label %75

45:                                               ; preds = %42
  call void @llvm.lifetime.start.p0(i64 8, ptr %7) #11
  %46 = call ptr @dt_conf_get_string_const(ptr noundef @.str.1)
  store ptr %46, ptr %7, align 8, !tbaa !25
  call void @llvm.lifetime.start.p0(i64 4, ptr %8) #11
  store i32 0, ptr %8, align 4, !tbaa !15
  br label %47

47:                                               ; preds = %70, %45
  %48 = load ptr, ptr %7, align 8, !tbaa !25
  %49 = icmp ne ptr %48, null
  br i1 %49, label %50, label %53

50:                                               ; preds = %47
  %51 = load i32, ptr %8, align 4, !tbaa !15
  %52 = icmp slt i32 %51, 4
  br label %53

53:                                               ; preds = %50, %47
  %54 = phi i1 [ false, %47 ], [ %52, %50 ]
  br i1 %54, label %56, label %55

55:                                               ; preds = %53
  store i32 5, ptr %6, align 4
  br label %73

56:                                               ; preds = %53
  %57 = load ptr, ptr %7, align 8, !tbaa !25
  %58 = load i32, ptr %8, align 4, !tbaa !15
  %59 = sext i32 %58 to i64
  %60 = getelementptr inbounds [4 x %struct.dt_interpolation], ptr @dt_interpolator, i64 0, i64 %59
  %61 = getelementptr inbounds nuw %struct.dt_interpolation, ptr %60, i32 0, i32 1
  %62 = load ptr, ptr %61, align 8, !tbaa !26
  %63 = call i32 @strcmp(ptr noundef %57, ptr noundef %62) #12
  %64 = icmp ne i32 %63, 0
  br i1 %64, label %69, label %65

65:                                               ; preds = %56
  %66 = load i32, ptr %8, align 4, !tbaa !15
  %67 = sext i32 %66 to i64
  %68 = getelementptr inbounds [4 x %struct.dt_interpolation], ptr @dt_interpolator, i64 0, i64 %67
  store ptr %68, ptr %3, align 8, !tbaa !6
  store i32 5, ptr %6, align 4
  br label %73

69:                                               ; preds = %56
  br label %70

70:                                               ; preds = %69
  %71 = load i32, ptr %8, align 4, !tbaa !15
  %72 = add nsw i32 %71, 1
  store i32 %72, ptr %8, align 4, !tbaa !15
  br label %47

73:                                               ; preds = %65, %55
  call void @llvm.lifetime.end.p0(i64 4, ptr %8) #11
  br label %74

74:                                               ; preds = %73
  store i32 1, ptr %2, align 4, !tbaa !15
  call void @llvm.lifetime.end.p0(i64 8, ptr %7) #11
  br label %75

75:                                               ; preds = %74, %42
  br label %76

76:                                               ; preds = %75, %41
  %77 = load ptr, ptr %3, align 8, !tbaa !6
  %78 = icmp ne ptr %77, null
  br i1 %78, label %113, label %79

79:                                               ; preds = %76
  call void @llvm.lifetime.start.p0(i64 4, ptr %9) #11
  store i32 0, ptr %9, align 4, !tbaa !15
  br label %80

80:                                               ; preds = %108, %79
  %81 = load i32, ptr %9, align 4, !tbaa !15
  %82 = icmp slt i32 %81, 4
  br i1 %82, label %84, label %83

83:                                               ; preds = %80
  store i32 8, ptr %6, align 4
  br label %111

84:                                               ; preds = %80
  %85 = load i32, ptr %9, align 4, !tbaa !15
  %86 = sext i32 %85 to i64
  %87 = getelementptr inbounds [4 x %struct.dt_interpolation], ptr @dt_interpolator, i64 0, i64 %86
  %88 = getelementptr inbounds nuw %struct.dt_interpolation, ptr %87, i32 0, i32 0
  %89 = load i32, ptr %88, align 16, !tbaa !27
  %90 = load i32, ptr %2, align 4, !tbaa !15
  %91 = icmp eq i32 %89, %90
  br i1 %91, label %92, label %96

92:                                               ; preds = %84
  %93 = load i32, ptr %9, align 4, !tbaa !15
  %94 = sext i32 %93 to i64
  %95 = getelementptr inbounds [4 x %struct.dt_interpolation], ptr @dt_interpolator, i64 0, i64 %94
  store ptr %95, ptr %3, align 8, !tbaa !6
  store i32 8, ptr %6, align 4
  br label %111

96:                                               ; preds = %84
  %97 = load i32, ptr %9, align 4, !tbaa !15
  %98 = sext i32 %97 to i64
  %99 = getelementptr inbounds [4 x %struct.dt_interpolation], ptr @dt_interpolator, i64 0, i64 %98
  %100 = getelementptr inbounds nuw %struct.dt_interpolation, ptr %99, i32 0, i32 0
  %101 = load i32, ptr %100, align 16, !tbaa !27
  %102 = icmp eq i32 %101, 0
  br i1 %102, label %103, label %107

103:                                              ; preds = %96
  %104 = load i32, ptr %9, align 4, !tbaa !15
  %105 = sext i32 %104 to i64
  %106 = getelementptr inbounds [4 x %struct.dt_interpolation], ptr @dt_interpolator, i64 0, i64 %105
  store ptr %106, ptr %3, align 8, !tbaa !6
  br label %107

107:                                              ; preds = %103, %96
  br label %108

108:                                              ; preds = %107
  %109 = load i32, ptr %9, align 4, !tbaa !15
  %110 = add nsw i32 %109, 1
  store i32 %110, ptr %9, align 4, !tbaa !15
  br label %80

111:                                              ; preds = %92, %83
  call void @llvm.lifetime.end.p0(i64 4, ptr %9) #11
  br label %112

112:                                              ; preds = %111
  br label %113

113:                                              ; preds = %112, %76
  %114 = load ptr, ptr %3, align 8, !tbaa !6
  store i32 1, ptr %6, align 4
  call void @llvm.lifetime.end.p0(i64 8, ptr %3) #11
  ret ptr %114
}