; Function Attrs: nounwind uwtable
define ptr @dt_interpolation_new(i32 noundef %0) local_unnamed_addr #0 {
  switch i32 %0, label %.loopexit [
    i32 2, label %2
    i32 3, label %9
  ]

2:                                                ; preds = %1
  %3 = tail call ptr @dt_conf_get_string_const(ptr noundef nonnull @.str) #13
  %.not46 = icmp eq ptr %3, null
  br i1 %.not46, label %.loopexit, label %.lr.ph41.split

4:                                                ; preds = %.lr.ph41.split
  %indvars.iv.next55 = add nuw nsw i64 %indvars.iv54, 1
  %exitcond57.not = icmp eq i64 %indvars.iv.next55, 4
  br i1 %exitcond57.not, label %.loopexit, label %.lr.ph41.split

.lr.ph41.split:                                   ; preds = %2, %4
  %indvars.iv54 = phi i64 [ %indvars.iv.next55, %4 ], [ 0, %2 ]
  %5 = getelementptr inbounds nuw [4 x %struct.dt_interpolation], ptr @dt_interpolator, i64 0, i64 %indvars.iv54
  %6 = getelementptr inbounds nuw i8, ptr %5, i64 8
  %7 = load ptr, ptr %6, align 8, !tbaa !25
  %8 = tail call i32 @strcmp(ptr noundef nonnull dereferenceable(1) %3, ptr noundef nonnull dereferenceable(1) %7) #15
  %.not30 = icmp eq i32 %8, 0
  br i1 %.not30, label %.thread, label %4

9:                                                ; preds = %1
  %10 = tail call ptr @dt_conf_get_string_const(ptr noundef nonnull @.str.1) #13
  %.not45 = icmp eq ptr %10, null
  br i1 %.not45, label %.loopexit, label %.lr.ph.split

11:                                               ; preds = %.lr.ph.split
  %indvars.iv.next = add nuw nsw i64 %indvars.iv, 1
  %exitcond.not = icmp eq i64 %indvars.iv.next, 4
  br i1 %exitcond.not, label %.loopexit, label %.lr.ph.split

.lr.ph.split:                                     ; preds = %9, %11
  %indvars.iv = phi i64 [ %indvars.iv.next, %11 ], [ 0, %9 ]
  %12 = getelementptr inbounds nuw [4 x %struct.dt_interpolation], ptr @dt_interpolator, i64 0, i64 %indvars.iv
  %13 = getelementptr inbounds nuw i8, ptr %12, i64 8
  %14 = load ptr, ptr %13, align 8, !tbaa !25
  %15 = tail call i32 @strcmp(ptr noundef nonnull dereferenceable(1) %10, ptr noundef nonnull dereferenceable(1) %14) #15
  %.not = icmp eq i32 %15, 0
  br i1 %.not, label %.thread, label %11

.loopexit:                                        ; preds = %11, %4, %9, %2, %1
  %.023 = phi i32 [ %0, %1 ], [ 0, %2 ], [ 1, %9 ], [ 0, %4 ], [ 1, %11 ]
  br label %16

16:                                               ; preds = %.loopexit, %20
  %indvars.iv58 = phi i64 [ 0, %.loopexit ], [ %indvars.iv.next59, %20 ]
  %.443 = phi ptr [ null, %.loopexit ], [ %spec.select, %20 ]
  %17 = getelementptr inbounds nuw [4 x %struct.dt_interpolation], ptr @dt_interpolator, i64 0, i64 %indvars.iv58
  %18 = load i32, ptr %17, align 16, !tbaa !26
  %19 = icmp eq i32 %18, %.023
  br i1 %19, label %.thread, label %20

20:                                               ; preds = %16
  %21 = icmp eq i32 %18, 0
  %spec.select = select i1 %21, ptr %17, ptr %.443
  %indvars.iv.next59 = add nuw nsw i64 %indvars.iv58, 1
  %exitcond61.not = icmp eq i64 %indvars.iv.next59, 4
  br i1 %exitcond61.not, label %.thread, label %16

.thread:                                          ; preds = %.lr.ph.split, %.lr.ph41.split, %20, %16
  %.3 = phi ptr [ %17, %16 ], [ %spec.select, %20 ], [ %5, %.lr.ph41.split ], [ %12, %.lr.ph.split ]
  ret ptr %.3
}